; Function Attrs: mustprogress nofree norecurse nosync nounwind willreturn memory(read, inaccessiblemem: none) uwtable
define zeroext i1 @lv_display_get_antialiasing(ptr noundef readonly %0) local_unnamed_addr #6 {
  %2 = icmp eq ptr %0, null
  br i1 %2, label %3, label %.thread

3:                                                ; preds = %1
  %4 = load ptr, ptr getelementptr inbounds nuw (i8, ptr @lv_global, i64 40), align 8, !tbaa !33
  %5 = icmp eq ptr %4, null
  br i1 %5, label %10, label %.thread

.thread:                                          ; preds = %1, %3
  %.07 = phi ptr [ %4, %3 ], [ %0, %1 ]
  %6 = getelementptr inbounds nuw i8, ptr %.07, i64 88
  %7 = load i16, ptr %6, align 8
  %8 = and i16 %7, 1
  %9 = icmp ne i16 %8, 0
  br label %10

10:                                               ; preds = %3, %.thread
  %.04 = phi i1 [ %9, %.thread ], [ false, %3 ]
  ret i1 %.04
}